target datalayout = "e-m:e-p270:32:32-p271:32:32-p272:64:64-i64:64-i128:128-f80:128-n8:16:32:64-S128"
target triple = "x86_64-pc-linux-gnu"

%struct.H5O_msg_class_t = type { i32, ptr, i64, i32, ptr, ptr, ptr, ptr, ptr, ptr, ptr, ptr, ptr, ptr, ptr, ptr, ptr, ptr, ptr, ptr }

@H5O_init_g = external global i8, align 1
@H5_libterm_g = external global i8, align 1
@.str = private unnamed_addr constant [104 x i8] c"generated/home/dtcxzyw/WorkSpace/Projects/compilers/llvm-opt-benchmark/bench/hdf5/hdf5/src/H5Omessage.c\00", align 1
@H5E_FUNC_g = external global i64, align 8
@H5E_CANTINIT_g = external global i64, align 8
@.str.1 = private unnamed_addr constant [32 x i8] c"interface initialization failed\00", align 1
@H5E_OHDR_g = external global i64, align 8
@H5O_msg_class_g = external constant [26 x ptr], align 16
@H5E_CANTCOUNT_g = external global i64, align 8
@.str.32 = private unnamed_addr constant [36 x i8] c"unable to determine size of message\00", align 1
@__func__.H5O_msg_size_f = private unnamed_addr constant [15 x i8] c"H5O_msg_size_f\00", align 1
@H5E_PLIST_g = external global i64, align 8
@H5E_BADTYPE_g = external global i64, align 8
@.str.33 = private unnamed_addr constant [20 x i8] c"not a property list\00", align 1
@.str.34 = private unnamed_addr constant [20 x i8] c"object header flags\00", align 1
@H5E_CANTGET_g = external global i64, align 8
@.str.35 = private unnamed_addr constant [30 x i8] c"can't get object header flags\00", align 1
@H5O_obj_ver_bounds = external constant [7 x i32], align 16

; Function Attrs: nounwind uwtable
define i64 @H5O_msg_size_f(ptr noundef %0, i64 noundef %1, i32 noundef %2, ptr noundef %3, i64 noundef %4) #0 {
  %6 = alloca ptr, align 8
  %7 = alloca i64, align 8
  %8 = alloca i32, align 4
  %9 = alloca ptr, align 8
  %10 = alloca i64, align 8
  %11 = alloca ptr, align 8
  %12 = alloca ptr, align 8
  %13 = alloca i8, align 1
  %14 = alloca i64, align 8
  %15 = alloca i8, align 1
  store ptr %0, ptr %6, align 8, !tbaa !22
  store i64 %1, ptr %7, align 8, !tbaa !17
  store i32 %2, ptr %8, align 4, !tbaa !8
  store ptr %3, ptr %9, align 8, !tbaa !10
  store i64 %4, ptr %10, align 8, !tbaa !17
  call void @llvm.lifetime.start.p0(i64 8, ptr %11) #5
  call void @llvm.lifetime.start.p0(i64 8, ptr %12) #5
  call void @llvm.lifetime.start.p0(i64 1, ptr %13) #5
  call void @llvm.lifetime.start.p0(i64 8, ptr %14) #5
  store i64 0, ptr %14, align 8, !tbaa !17
  call void @llvm.lifetime.start.p0(i64 1, ptr %15) #5
  store i8 0, ptr %15, align 1, !tbaa !13
  %16 = load i8, ptr @H5O_init_g, align 1, !tbaa !13, !range !15, !noundef !16
  %17 = trunc i8 %16 to i1
  br i1 %17, label %22, label %18

18:                                               ; preds = %5
  %19 = load i8, ptr @H5_libterm_g, align 1, !tbaa !13, !range !15, !noundef !16
  %20 = trunc i8 %19 to i1
  %21 = xor i1 %20, true
  br label %22

22:                                               ; preds = %18, %5
  %23 = phi i1 [ false, %5 ], [ %21, %18 ]
  %24 = xor i1 %23, true
  %25 = xor i1 %24, true
  %26 = zext i1 %25 to i32
  %27 = sext i32 %26 to i64
  %28 = call i64 @llvm.expect.i64(i64 %27, i64 0)
  %29 = icmp ne i64 %28, 0
  br i1 %29, label %30, label %53

30:                                               ; preds = %22
  store i8 1, ptr @H5O_init_g, align 1, !tbaa !13
  %31 = call i32 @H5O__init_package()
  %32 = icmp slt i32 %31, 0
  br i1 %32, label %33, label %52

33:                                               ; preds = %30
  store i8 0, ptr @H5O_init_g, align 1, !tbaa !13
  br label %34

34:                                               ; preds = %33
  br label %35

35:                                               ; preds = %34
  br label %36

36:                                               ; preds = %35
  %37 = load i64, ptr @H5E_FUNC_g, align 8, !tbaa !17
  %38 = load i64, ptr @H5E_CANTINIT_g, align 8, !tbaa !17
  %39 = call i32 (ptr, ptr, i32, i64, i64, ptr, ...) @H5E_printf_stack(ptr noundef @.str, ptr noundef @__func__.H5O_msg_size_f, i32 noundef 1259, i64 noundef %37, i64 noundef %38, ptr noundef @.str.1)
  br label %40

40:                                               ; preds = %36
  br label %41

41:                                               ; preds = %40
  store i8 1, ptr %15, align 1, !tbaa !13
  %42 = load i8, ptr %15, align 1, !tbaa !13, !range !15, !noundef !16
  %43 = trunc i8 %42 to i1
  %44 = zext i1 %43 to i8
  store i8 %44, ptr %15, align 1, !tbaa !13
  br label %45

45:                                               ; preds = %41
  br label %46

46:                                               ; preds = %45
  br label %47

47:                                               ; preds = %46
  store i64 0, ptr %14, align 8, !tbaa !17
  br label %222

48:                                               ; No predecessors!
  br label %49

49:                                               ; preds = %48
  br label %50

50:                                               ; preds = %49
  br label %51

51:                                               ; preds = %50
  br label %52

52:                                               ; preds = %51, %30
  br label %53

53:                                               ; preds = %52, %22
  %54 = load i8, ptr @H5O_init_g, align 1, !tbaa !13, !range !15, !noundef !16
  %55 = trunc i8 %54 to i1
  br i1 %55, label %60, label %56

56:                                               ; preds = %53
  %57 = load i8, ptr @H5_libterm_g, align 1, !tbaa !13, !range !15, !noundef !16
  %58 = trunc i8 %57 to i1
  %59 = xor i1 %58, true
  br label %60

60:                                               ; preds = %56, %53
  %61 = phi i1 [ true, %53 ], [ %59, %56 ]
  %62 = xor i1 %61, true
  %63 = xor i1 %62, true
  %64 = zext i1 %63 to i32
  %65 = sext i32 %64 to i64
  %66 = call i64 @llvm.expect.i64(i64 %65, i64 1)
  %67 = icmp ne i64 %66, 0
  br i1 %67, label %68, label %223

68:                                               ; preds = %60
  %69 = load i32, ptr %8, align 4, !tbaa !8
  %70 = zext i32 %69 to i64
  %71 = getelementptr inbounds nuw [26 x ptr], ptr @H5O_msg_class_g, i64 0, i64 %70
  %72 = load ptr, ptr %71, align 8, !tbaa !23
  store ptr %72, ptr %11, align 8, !tbaa !23
  %73 = load i64, ptr %7, align 8, !tbaa !17
  %74 = call ptr @H5I_object(i64 noundef %73)
  store ptr %74, ptr %12, align 8, !tbaa !90
  %75 = icmp eq ptr null, %74
  br i1 %75, label %76, label %95

76:                                               ; preds = %68
  br label %77

77:                                               ; preds = %76
  br label %78

78:                                               ; preds = %77
  br label %79

79:                                               ; preds = %78
  %80 = load i64, ptr @H5E_PLIST_g, align 8, !tbaa !17
  %81 = load i64, ptr @H5E_BADTYPE_g, align 8, !tbaa !17
  %82 = call i32 (ptr, ptr, i32, i64, i64, ptr, ...) @H5E_printf_stack(ptr noundef @.str, ptr noundef @__func__.H5O_msg_size_f, i32 noundef 1271, i64 noundef %80, i64 noundef %81, ptr noundef @.str.33)
  br label %83

83:                                               ; preds = %79
  br label %84

84:                                               ; preds = %83
  store i8 1, ptr %15, align 1, !tbaa !13
  %85 = load i8, ptr %15, align 1, !tbaa !13, !range !15, !noundef !16
  %86 = trunc i8 %85 to i1
  %87 = zext i1 %86 to i8
  store i8 %87, ptr %15, align 1, !tbaa !13
  br label %88

88:                                               ; preds = %84
  br label %89

89:                                               ; preds = %88
  br label %90

90:                                               ; preds = %89
  store i64 0, ptr %14, align 8, !tbaa !17
  br label %222

91:                                               ; No predecessors!
  br label %92

92:                                               ; preds = %91
  br label %93

93:                                               ; preds = %92
  br label %94

94:                                               ; preds = %93
  br label %95

95:                                               ; preds = %94, %68
  %96 = load ptr, ptr %12, align 8, !tbaa !90
  %97 = call i32 @H5P_get(ptr noundef %96, ptr noundef @.str.34, ptr noundef %13)
  %98 = icmp slt i32 %97, 0
  br i1 %98, label %99, label %118

99:                                               ; preds = %95
  br label %100

100:                                              ; preds = %99
  br label %101

101:                                              ; preds = %100
  br label %102

102:                                              ; preds = %101
  %103 = load i64, ptr @H5E_PLIST_g, align 8, !tbaa !17
  %104 = load i64, ptr @H5E_CANTGET_g, align 8, !tbaa !17
  %105 = call i32 (ptr, ptr, i32, i64, i64, ptr, ...) @H5E_printf_stack(ptr noundef @.str, ptr noundef @__func__.H5O_msg_size_f, i32 noundef 1275, i64 noundef %103, i64 noundef %104, ptr noundef @.str.35)
  br label %106

106:                                              ; preds = %102
  br label %107

107:                                              ; preds = %106
  store i8 1, ptr %15, align 1, !tbaa !13
  %108 = load i8, ptr %15, align 1, !tbaa !13, !range !15, !noundef !16
  %109 = trunc i8 %108 to i1
  %110 = zext i1 %109 to i8
  store i8 %110, ptr %15, align 1, !tbaa !13
  br label %111

111:                                              ; preds = %107
  br label %112

112:                                              ; preds = %111
  br label %113

113:                                              ; preds = %112
  store i64 0, ptr %14, align 8, !tbaa !17
  br label %222

114:                                              ; No predecessors!
  br label %115

115:                                              ; preds = %114
  br label %116

116:                                              ; preds = %115
  br label %117

117:                                              ; preds = %116
  br label %118

118:                                              ; preds = %117, %95
  %119 = load ptr, ptr %11, align 8, !tbaa !23
  %120 = getelementptr inbounds nuw %struct.H5O_msg_class_t, ptr %119, i32 0, i32 7
  %121 = load ptr, ptr %120, align 8, !tbaa !89
  %122 = load ptr, ptr %6, align 8, !tbaa !22
  %123 = load ptr, ptr %9, align 8, !tbaa !10
  %124 = call i64 %121(ptr noundef %122, i1 noundef zeroext false, ptr noundef %123)
  store i64 %124, ptr %14, align 8, !tbaa !17
  %125 = icmp eq i64 %124, 0
  br i1 %125, label %126, label %145

126:                                              ; preds = %118
  br label %127

127:                                              ; preds = %126
  br label %128

128:                                              ; preds = %127
  br label %129

129:                                              ; preds = %128
  %130 = load i64, ptr @H5E_OHDR_g, align 8, !tbaa !17
  %131 = load i64, ptr @H5E_CANTCOUNT_g, align 8, !tbaa !17
  %132 = call i32 (ptr, ptr, i32, i64, i64, ptr, ...) @H5E_printf_stack(ptr noundef @.str, ptr noundef @__func__.H5O_msg_size_f, i32 noundef 1279, i64 noundef %130, i64 noundef %131, ptr noundef @.str.32)
  br label %133

133:                                              ; preds = %129
  br label %134

134:                                              ; preds = %133
  store i8 1, ptr %15, align 1, !tbaa !13
  %135 = load i8, ptr %15, align 1, !tbaa !13, !range !15, !noundef !16
  %136 = trunc i8 %135 to i1
  %137 = zext i1 %136 to i8
  store i8 %137, ptr %15, align 1, !tbaa !13
  br label %138

138:                                              ; preds = %134
  br label %139

139:                                              ; preds = %138
  br label %140

140:                                              ; preds = %139
  store i64 0, ptr %14, align 8, !tbaa !17
  br label %222

141:                                              ; No predecessors!
  br label %142

142:                                              ; preds = %141
  br label %143

143:                                              ; preds = %142
  br label %144

144:                                              ; preds = %143
  br label %145

145:                                              ; preds = %144, %118
  %146 = load i64, ptr %10, align 8, !tbaa !17
  %147 = load i64, ptr %14, align 8, !tbaa !17
  %148 = add i64 %147, %146
  store i64 %148, ptr %14, align 8, !tbaa !17
  %149 = load ptr, ptr %6, align 8, !tbaa !22
  %150 = call i32 @H5F_get_low_bound(ptr noundef %149)
  %151 = sext i32 %150 to i64
  %152 = getelementptr inbounds [7 x i32], ptr @H5O_obj_ver_bounds, i64 0, i64 %151
  %153 = load i32, ptr %152, align 4, !tbaa !8
  %154 = trunc i32 %153 to i8
  %155 = zext i8 %154 to i32
  %156 = icmp sgt i32 1, %155
  br i1 %156, label %157, label %158

157:                                              ; preds = %145
  br label %166

158:                                              ; preds = %145
  %159 = load ptr, ptr %6, align 8, !tbaa !22
  %160 = call i32 @H5F_get_low_bound(ptr noundef %159)
  %161 = sext i32 %160 to i64
  %162 = getelementptr inbounds [7 x i32], ptr @H5O_obj_ver_bounds, i64 0, i64 %161
  %163 = load i32, ptr %162, align 4, !tbaa !8
  %164 = trunc i32 %163 to i8
  %165 = zext i8 %164 to i32
  br label %166

166:                                              ; preds = %158, %157
  %167 = phi i32 [ 1, %157 ], [ %165, %158 ]
  %168 = icmp eq i32 %167, 1
  br i1 %168, label %169, label %174

169:                                              ; preds = %166
  %170 = load i64, ptr %14, align 8, !tbaa !17
  %171 = add i64 %170, 7
  %172 = udiv i64 %171, 8
  %173 = mul i64 8, %172
  br label %176

174:                                              ; preds = %166
  %175 = load i64, ptr %14, align 8, !tbaa !17
  br label %176

176:                                              ; preds = %174, %169
  %177 = phi i64 [ %173, %169 ], [ %175, %174 ]
  store i64 %177, ptr %14, align 8, !tbaa !17
  %178 = load ptr, ptr %6, align 8, !tbaa !22
  %179 = call zeroext i1 @H5F_store_msg_crt_idx(ptr noundef %178)
  %180 = select i1 %179, i32 2, i32 1
  %181 = load ptr, ptr %6, align 8, !tbaa !22
  %182 = call i32 @H5F_get_low_bound(ptr noundef %181)
  %183 = sext i32 %182 to i64
  %184 = getelementptr inbounds [7 x i32], ptr @H5O_obj_ver_bounds, i64 0, i64 %183
  %185 = load i32, ptr %184, align 4, !tbaa !8
  %186 = trunc i32 %185 to i8
  %187 = zext i8 %186 to i32
  %188 = icmp sgt i32 %180, %187
  br i1 %188, label %189, label %193

189:                                              ; preds = %176
  %190 = load ptr, ptr %6, align 8, !tbaa !22
  %191 = call zeroext i1 @H5F_store_msg_crt_idx(ptr noundef %190)
  %192 = select i1 %191, i32 2, i32 1
  br label %201

193:                                              ; preds = %176
  %194 = load ptr, ptr %6, align 8, !tbaa !22
  %195 = call i32 @H5F_get_low_bound(ptr noundef %194)
  %196 = sext i32 %195 to i64
  %197 = getelementptr inbounds [7 x i32], ptr @H5O_obj_ver_bounds, i64 0, i64 %196
  %198 = load i32, ptr %197, align 4, !tbaa !8
  %199 = trunc i32 %198 to i8
  %200 = zext i8 %199 to i32
  br label %201

201:                                              ; preds = %193, %189
  %202 = phi i32 [ %192, %189 ], [ %200, %193 ]
  %203 = icmp eq i32 %202, 1
  br i1 %203, label %204, label %205

204:                                              ; preds = %201
  br label %217

205:                                              ; preds = %201
  %206 = load ptr, ptr %6, align 8, !tbaa !22
  %207 = call zeroext i1 @H5F_store_msg_crt_idx(ptr noundef %206)
  br i1 %207, label %213, label %208

208:                                              ; preds = %205
  %209 = load i8, ptr %13, align 1, !tbaa !69
  %210 = zext i8 %209 to i32
  %211 = and i32 %210, 4
  %212 = icmp ne i32 %211, 0
  br label %213

213:                                              ; preds = %208, %205
  %214 = phi i1 [ true, %205 ], [ %212, %208 ]
  %215 = select i1 %214, i32 2, i32 0
  %216 = add nsw i32 4, %215
  br label %217

217:                                              ; preds = %213, %204
  %218 = phi i32 [ 8, %204 ], [ %216, %213 ]
  %219 = zext i32 %218 to i64
  %220 = load i64, ptr %14, align 8, !tbaa !17
  %221 = add i64 %220, %219
  store i64 %221, ptr %14, align 8, !tbaa !17
  br label %222

222:                                              ; preds = %217, %140, %113, %90, %47
  br label %223

223:                                              ; preds = %222, %60
  %224 = load i64, ptr %14, align 8, !tbaa !17
  call void @llvm.lifetime.end.p0(i64 1, ptr %15) #5
  call void @llvm.lifetime.end.p0(i64 8, ptr %14) #5
  call void @llvm.lifetime.end.p0(i64 1, ptr %13) #5
  call void @llvm.lifetime.end.p0(i64 8, ptr %12) #5
  call void @llvm.lifetime.end.p0(i64 8, ptr %11) #5
  ret i64 %224
}