; Function Attrs: nounwind uwtable
define i64 @H5O_msg_size_f(ptr noundef %0, i64 noundef %1, i32 noundef %2, ptr noundef %3, i64 noundef %4) local_unnamed_addr #0 {
  %6 = alloca i8, align 1
  call void @llvm.lifetime.start.p0(i64 1, ptr nonnull %6) #7
  %7 = load i8, ptr @H5O_init_g, align 1, !tbaa !3, !range !7, !noundef !8
  %8 = trunc nuw i8 %7 to i1
  %9 = load i8, ptr @H5_libterm_g, align 1, !range !7
  %10 = trunc nuw i8 %9 to i1
  %11 = select i1 %8, i1 true, i1 %10
  br i1 %11, label %19, label %12, !prof !9

12:                                               ; preds = %5
  store i8 1, ptr @H5O_init_g, align 1, !tbaa !3
  %13 = tail call i32 @H5O__init_package() #7
  %14 = icmp slt i32 %13, 0
  br i1 %14, label %15, label %._crit_edge

._crit_edge:                                      ; preds = %12
  %.pre = load i8, ptr @H5O_init_g, align 1, !tbaa !3, !range !7
  %.pre25 = load i8, ptr @H5_libterm_g, align 1, !range !7
  %.pre26 = trunc nuw i8 %.pre to i1
  %.pre27 = trunc nuw i8 %.pre25 to i1
  br label %19

15:                                               ; preds = %12
  store i8 0, ptr @H5O_init_g, align 1, !tbaa !3
  %16 = load i64, ptr @H5E_FUNC_g, align 8, !tbaa !10
  %17 = load i64, ptr @H5E_CANTINIT_g, align 8, !tbaa !10
  %18 = tail call i32 (ptr, ptr, i32, i64, i64, ptr, ...) @H5E_printf_stack(ptr noundef nonnull @.str, ptr noundef nonnull @__func__.H5O_msg_size_f, i32 noundef 1259, i64 noundef %16, i64 noundef %17, ptr noundef nonnull @.str.1) #7
  br label %92

19:                                               ; preds = %._crit_edge, %5
  %.pre-phi28 = phi i1 [ %.pre27, %._crit_edge ], [ %10, %5 ]
  %.pre-phi = phi i1 [ %.pre26, %._crit_edge ], [ %8, %5 ]
  %20 = xor i1 %.pre-phi28, true
  %21 = select i1 %.pre-phi, i1 true, i1 %20
  br i1 %21, label %22, label %92, !prof !9

22:                                               ; preds = %19
  %23 = zext i32 %2 to i64
  %24 = getelementptr inbounds nuw [26 x ptr], ptr @H5O_msg_class_g, i64 0, i64 %23
  %25 = load ptr, ptr %24, align 8, !tbaa !16
  %26 = tail call ptr @H5I_object(i64 noundef %1) #7
  %27 = icmp eq ptr %26, null
  br i1 %27, label %28, label %32

28:                                               ; preds = %22
  %29 = load i64, ptr @H5E_PLIST_g, align 8, !tbaa !10
  %30 = load i64, ptr @H5E_BADTYPE_g, align 8, !tbaa !10
  %31 = tail call i32 (ptr, ptr, i32, i64, i64, ptr, ...) @H5E_printf_stack(ptr noundef nonnull @.str, ptr noundef nonnull @__func__.H5O_msg_size_f, i32 noundef 1271, i64 noundef %29, i64 noundef %30, ptr noundef nonnull @.str.33) #7
  br label %92

32:                                               ; preds = %22
  %33 = call i32 @H5P_get(ptr noundef nonnull %26, ptr noundef nonnull @.str.34, ptr noundef nonnull %6) #7
  %34 = icmp slt i32 %33, 0
  br i1 %34, label %35, label %39

35:                                               ; preds = %32
  %36 = load i64, ptr @H5E_PLIST_g, align 8, !tbaa !10
  %37 = load i64, ptr @H5E_CANTGET_g, align 8, !tbaa !10
  %38 = call i32 (ptr, ptr, i32, i64, i64, ptr, ...) @H5E_printf_stack(ptr noundef nonnull @.str, ptr noundef nonnull @__func__.H5O_msg_size_f, i32 noundef 1275, i64 noundef %36, i64 noundef %37, ptr noundef nonnull @.str.35) #7
  br label %92

39:                                               ; preds = %32
  %40 = getelementptr inbounds nuw i8, ptr %25, i64 56
  %41 = load ptr, ptr %40, align 8, !tbaa !82
  %42 = call i64 %41(ptr noundef %0, i1 noundef zeroext false, ptr noundef %3) #7
  %43 = icmp eq i64 %42, 0
  br i1 %43, label %44, label %48

44:                                               ; preds = %39
  %45 = load i64, ptr @H5E_OHDR_g, align 8, !tbaa !10
  %46 = load i64, ptr @H5E_CANTCOUNT_g, align 8, !tbaa !10
  %47 = call i32 (ptr, ptr, i32, i64, i64, ptr, ...) @H5E_printf_stack(ptr noundef nonnull @.str, ptr noundef nonnull @__func__.H5O_msg_size_f, i32 noundef 1279, i64 noundef %45, i64 noundef %46, ptr noundef nonnull @.str.32) #7
  br label %92

48:                                               ; preds = %39
  %49 = add i64 %42, %4
  %50 = call i32 @H5F_get_low_bound(ptr noundef %0) #7
  %51 = sext i32 %50 to i64
  %52 = getelementptr inbounds [7 x i32], ptr @H5O_obj_ver_bounds, i64 0, i64 %51
  %53 = load i32, ptr %52, align 4, !tbaa !18
  %54 = and i32 %53, 255
  %55 = icmp eq i32 %54, 0
  br i1 %55, label %.critedge, label %56

56:                                               ; preds = %48
  %57 = call i32 @H5F_get_low_bound(ptr noundef %0) #7
  %58 = sext i32 %57 to i64
  %59 = getelementptr inbounds [7 x i32], ptr @H5O_obj_ver_bounds, i64 0, i64 %58
  %60 = load i32, ptr %59, align 4, !tbaa !18
  %61 = and i32 %60, 255
  %62 = icmp eq i32 %61, 1
  br i1 %62, label %.critedge, label %65

.critedge:                                        ; preds = %48, %56
  %63 = add i64 %49, 7
  %64 = and i64 %63, -8
  br label %65

65:                                               ; preds = %56, %.critedge
  %66 = phi i64 [ %64, %.critedge ], [ %49, %56 ]
  %67 = call zeroext i1 @H5F_store_msg_crt_idx(ptr noundef %0) #7
  %68 = select i1 %67, i32 2, i32 1
  %69 = call i32 @H5F_get_low_bound(ptr noundef %0) #7
  %70 = sext i32 %69 to i64
  %71 = getelementptr inbounds [7 x i32], ptr @H5O_obj_ver_bounds, i64 0, i64 %70
  %72 = load i32, ptr %71, align 4, !tbaa !18
  %73 = and i32 %72, 255
  %74 = icmp samesign ugt i32 %68, %73
  br i1 %74, label %75, label %77

75:                                               ; preds = %65
  %76 = call zeroext i1 @H5F_store_msg_crt_idx(ptr noundef %0) #7
  br i1 %76, label %.thread24, label %.thread

77:                                               ; preds = %65
  %78 = call i32 @H5F_get_low_bound(ptr noundef %0) #7
  %79 = sext i32 %78 to i64
  %80 = getelementptr inbounds [7 x i32], ptr @H5O_obj_ver_bounds, i64 0, i64 %79
  %81 = load i32, ptr %80, align 4, !tbaa !18
  %82 = and i32 %81, 255
  %83 = icmp eq i32 %82, 1
  br i1 %83, label %.thread, label %.thread24

.thread24:                                        ; preds = %75, %77
  %84 = call zeroext i1 @H5F_store_msg_crt_idx(ptr noundef %0) #7
  %85 = load i8, ptr %6, align 1
  %86 = and i8 %85, 4
  %87 = icmp ne i8 %86, 0
  %88 = select i1 %84, i1 true, i1 %87
  %89 = select i1 %88, i64 6, i64 4
  br label %.thread

.thread:                                          ; preds = %75, %77, %.thread24
  %90 = phi i64 [ %89, %.thread24 ], [ 8, %77 ], [ 8, %75 ]
  %91 = add i64 %90, %66
  br label %92

92:                                               ; preds = %15, %28, %35, %44, %.thread, %19
  %.0 = phi i64 [ 0, %15 ], [ 0, %28 ], [ 0, %35 ], [ 0, %44 ], [ %91, %.thread ], [ 0, %19 ]
  call void @llvm.lifetime.end.p0(i64 1, ptr nonnull %6) #7
  ret i64 %.0
}